target datalayout = "e-m:e-p270:32:32-p271:32:32-p272:64:64-i64:64-i128:128-f80:128-n8:16:32:64-S128"
target triple = "x86_64-pc-linux-gnu"

%struct.MtrNode = type { i32, i32, i32, i32, ptr, ptr, ptr, ptr }

; Function Attrs: nounwind uwtable
define void @Mtr_DeallocNode(ptr noundef %0) #0 {
  %2 = alloca ptr, align 8
  store ptr %0, ptr %2, align 8, !tbaa !3
  %3 = load ptr, ptr %2, align 8, !tbaa !3
  %4 = icmp ne ptr %3, null
  br i1 %4, label %5, label %7

5:                                                ; preds = %1
  %6 = load ptr, ptr %2, align 8, !tbaa !3
  call void @free(ptr noundef %6) #4
  store ptr null, ptr %2, align 8, !tbaa !3
  br label %8

7:                                                ; preds = %1
  br label %8

8:                                                ; preds = %7, %5
  ret void
}

; Function Attrs: nounwind uwtable
define ptr @Mtr_AllocNode() #0 {
  %1 = alloca ptr, align 8
  call void @llvm.lifetime.start.p0(i64 8, ptr %1) #4
  %2 = call noalias ptr @malloc(i64 noundef 48) #5
  store ptr %2, ptr %1, align 8, !tbaa !3
  %3 = load ptr, ptr %1, align 8, !tbaa !3
  call void @llvm.lifetime.end.p0(i64 8, ptr %1) #4
  ret ptr %3
}

; Function Attrs: nounwind uwtable
define ptr @Mtr_CopyTree(ptr noundef %0, i32 noundef %1) #0 {
  %3 = alloca ptr, align 8
  %4 = alloca ptr, align 8
  %5 = alloca i32, align 4
  %6 = alloca ptr, align 8
  %7 = alloca i32, align 4
  %8 = alloca ptr, align 8
  store ptr %0, ptr %4, align 8, !tbaa !3
  store i32 %1, ptr %5, align 4, !tbaa !15
  call void @llvm.lifetime.start.p0(i64 8, ptr %6) #4
  %9 = load ptr, ptr %4, align 8, !tbaa !3
  %10 = icmp eq ptr %9, null
  br i1 %10, label %11, label %12

11:                                               ; preds = %2
  store ptr null, ptr %3, align 8
  store i32 1, ptr %7, align 4
  br label %128

12:                                               ; preds = %2
  %13 = load i32, ptr %5, align 4, !tbaa !15
  %14 = icmp slt i32 %13, 1
  br i1 %14, label %15, label %16

15:                                               ; preds = %12
  store ptr null, ptr %3, align 8
  store i32 1, ptr %7, align 4
  br label %128

16:                                               ; preds = %12
  %17 = call ptr @Mtr_AllocNode()
  store ptr %17, ptr %6, align 8, !tbaa !3
  %18 = load ptr, ptr %6, align 8, !tbaa !3
  %19 = icmp eq ptr %18, null
  br i1 %19, label %20, label %21

20:                                               ; preds = %16
  store ptr null, ptr %3, align 8
  store i32 1, ptr %7, align 4
  br label %128

21:                                               ; preds = %16
  %22 = load ptr, ptr %6, align 8, !tbaa !3
  %23 = getelementptr inbounds nuw %struct.MtrNode, ptr %22, i32 0, i32 7
  store ptr null, ptr %23, align 8, !tbaa !8
  %24 = load ptr, ptr %6, align 8, !tbaa !3
  %25 = getelementptr inbounds nuw %struct.MtrNode, ptr %24, i32 0, i32 5
  store ptr null, ptr %25, align 8, !tbaa !12
  %26 = load ptr, ptr %6, align 8, !tbaa !3
  %27 = getelementptr inbounds nuw %struct.MtrNode, ptr %26, i32 0, i32 6
  store ptr null, ptr %27, align 8, !tbaa !11
  %28 = load ptr, ptr %6, align 8, !tbaa !3
  %29 = getelementptr inbounds nuw %struct.MtrNode, ptr %28, i32 0, i32 4
  store ptr null, ptr %29, align 8, !tbaa !13
  %30 = load ptr, ptr %4, align 8, !tbaa !3
  %31 = getelementptr inbounds nuw %struct.MtrNode, ptr %30, i32 0, i32 5
  %32 = load ptr, ptr %31, align 8, !tbaa !12
  %33 = icmp ne ptr %32, null
  br i1 %33, label %34, label %49

34:                                               ; preds = %21
  %35 = load ptr, ptr %4, align 8, !tbaa !3
  %36 = getelementptr inbounds nuw %struct.MtrNode, ptr %35, i32 0, i32 5
  %37 = load ptr, ptr %36, align 8, !tbaa !12
  %38 = load i32, ptr %5, align 4, !tbaa !15
  %39 = call ptr @Mtr_CopyTree(ptr noundef %37, i32 noundef %38)
  %40 = load ptr, ptr %6, align 8, !tbaa !3
  %41 = getelementptr inbounds nuw %struct.MtrNode, ptr %40, i32 0, i32 5
  store ptr %39, ptr %41, align 8, !tbaa !12
  %42 = load ptr, ptr %6, align 8, !tbaa !3
  %43 = getelementptr inbounds nuw %struct.MtrNode, ptr %42, i32 0, i32 5
  %44 = load ptr, ptr %43, align 8, !tbaa !12
  %45 = icmp eq ptr %44, null
  br i1 %45, label %46, label %48

46:                                               ; preds = %34
  %47 = load ptr, ptr %6, align 8, !tbaa !3
  call void @Mtr_DeallocNode(ptr noundef %47)
  store ptr null, ptr %3, align 8
  store i32 1, ptr %7, align 4
  br label %128

48:                                               ; preds = %34
  br label %49

49:                                               ; preds = %48, %21
  %50 = load ptr, ptr %4, align 8, !tbaa !3
  %51 = getelementptr inbounds nuw %struct.MtrNode, ptr %50, i32 0, i32 7
  %52 = load ptr, ptr %51, align 8, !tbaa !8
  %53 = icmp ne ptr %52, null
  br i1 %53, label %54, label %69

54:                                               ; preds = %49
  %55 = load ptr, ptr %4, align 8, !tbaa !3
  %56 = getelementptr inbounds nuw %struct.MtrNode, ptr %55, i32 0, i32 7
  %57 = load ptr, ptr %56, align 8, !tbaa !8
  %58 = load i32, ptr %5, align 4, !tbaa !15
  %59 = call ptr @Mtr_CopyTree(ptr noundef %57, i32 noundef %58)
  %60 = load ptr, ptr %6, align 8, !tbaa !3
  %61 = getelementptr inbounds nuw %struct.MtrNode, ptr %60, i32 0, i32 7
  store ptr %59, ptr %61, align 8, !tbaa !8
  %62 = load ptr, ptr %6, align 8, !tbaa !3
  %63 = getelementptr inbounds nuw %struct.MtrNode, ptr %62, i32 0, i32 7
  %64 = load ptr, ptr %63, align 8, !tbaa !8
  %65 = icmp eq ptr %64, null
  br i1 %65, label %66, label %68

66:                                               ; preds = %54
  %67 = load ptr, ptr %6, align 8, !tbaa !3
  call void @Mtr_FreeTree(ptr noundef %67)
  store ptr null, ptr %3, align 8
  store i32 1, ptr %7, align 4
  br label %128

68:                                               ; preds = %54
  br label %69

69:                                               ; preds = %68, %49
  %70 = load ptr, ptr %4, align 8, !tbaa !3
  %71 = getelementptr inbounds nuw %struct.MtrNode, ptr %70, i32 0, i32 0
  %72 = load i32, ptr %71, align 8, !tbaa !14
  %73 = load ptr, ptr %6, align 8, !tbaa !3
  %74 = getelementptr inbounds nuw %struct.MtrNode, ptr %73, i32 0, i32 0
  store i32 %72, ptr %74, align 8, !tbaa !14
  %75 = load ptr, ptr %4, align 8, !tbaa !3
  %76 = getelementptr inbounds nuw %struct.MtrNode, ptr %75, i32 0, i32 1
  %77 = load i32, ptr %76, align 4, !tbaa !16
  %78 = load i32, ptr %5, align 4, !tbaa !15
  %79 = mul i32 %77, %78
  %80 = load ptr, ptr %6, align 8, !tbaa !3
  %81 = getelementptr inbounds nuw %struct.MtrNode, ptr %80, i32 0, i32 1
  store i32 %79, ptr %81, align 4, !tbaa !16
  %82 = load ptr, ptr %4, align 8, !tbaa !3
  %83 = getelementptr inbounds nuw %struct.MtrNode, ptr %82, i32 0, i32 2
  %84 = load i32, ptr %83, align 8, !tbaa !17
  %85 = load i32, ptr %5, align 4, !tbaa !15
  %86 = mul i32 %84, %85
  %87 = load ptr, ptr %6, align 8, !tbaa !3
  %88 = getelementptr inbounds nuw %struct.MtrNode, ptr %87, i32 0, i32 2
  store i32 %86, ptr %88, align 8, !tbaa !17
  %89 = load ptr, ptr %4, align 8, !tbaa !3
  %90 = getelementptr inbounds nuw %struct.MtrNode, ptr %89, i32 0, i32 3
  %91 = load i32, ptr %90, align 4, !tbaa !18
  %92 = load i32, ptr %5, align 4, !tbaa !15
  %93 = mul i32 %91, %92
  %94 = load ptr, ptr %6, align 8, !tbaa !3
  %95 = getelementptr inbounds nuw %struct.MtrNode, ptr %94, i32 0, i32 3
  store i32 %93, ptr %95, align 4, !tbaa !18
  %96 = load ptr, ptr %6, align 8, !tbaa !3
  %97 = getelementptr inbounds nuw %struct.MtrNode, ptr %96, i32 0, i32 7
  %98 = load ptr, ptr %97, align 8, !tbaa !8
  %99 = icmp ne ptr %98, null
  br i1 %99, label %100, label %106

100:                                              ; preds = %69
  %101 = load ptr, ptr %6, align 8, !tbaa !3
  %102 = load ptr, ptr %6, align 8, !tbaa !3
  %103 = getelementptr inbounds nuw %struct.MtrNode, ptr %102, i32 0, i32 7
  %104 = load ptr, ptr %103, align 8, !tbaa !8
  %105 = getelementptr inbounds nuw %struct.MtrNode, ptr %104, i32 0, i32 6
  store ptr %101, ptr %105, align 8, !tbaa !11
  br label %106

106:                                              ; preds = %100, %69
  %107 = load ptr, ptr %6, align 8, !tbaa !3
  %108 = getelementptr inbounds nuw %struct.MtrNode, ptr %107, i32 0, i32 5
  %109 = load ptr, ptr %108, align 8, !tbaa !12
  %110 = icmp ne ptr %109, null
  br i1 %110, label %111, label %126

111:                                              ; preds = %106
  call void @llvm.lifetime.start.p0(i64 8, ptr %8) #4
  %112 = load ptr, ptr %6, align 8, !tbaa !3
  %113 = getelementptr inbounds nuw %struct.MtrNode, ptr %112, i32 0, i32 5
  %114 = load ptr, ptr %113, align 8, !tbaa !12
  store ptr %114, ptr %8, align 8, !tbaa !3
  br label %115

115:                                              ; preds = %118, %111
  %116 = load ptr, ptr %8, align 8, !tbaa !3
  %117 = icmp ne ptr %116, null
  br i1 %117, label %118, label %125

118:                                              ; preds = %115
  %119 = load ptr, ptr %6, align 8, !tbaa !3
  %120 = load ptr, ptr %8, align 8, !tbaa !3
  %121 = getelementptr inbounds nuw %struct.MtrNode, ptr %120, i32 0, i32 4
  store ptr %119, ptr %121, align 8, !tbaa !13
  %122 = load ptr, ptr %8, align 8, !tbaa !3
  %123 = getelementptr inbounds nuw %struct.MtrNode, ptr %122, i32 0, i32 7
  %124 = load ptr, ptr %123, align 8, !tbaa !8
  store ptr %124, ptr %8, align 8, !tbaa !3
  br label %115, !llvm.loop !19

125:                                              ; preds = %115
  call void @llvm.lifetime.end.p0(i64 8, ptr %8) #4
  br label %126

126:                                              ; preds = %125, %106
  %127 = load ptr, ptr %6, align 8, !tbaa !3
  store ptr %127, ptr %3, align 8
  store i32 1, ptr %7, align 4
  br label %128

128:                                              ; preds = %126, %66, %46, %20, %15, %11
  call void @llvm.lifetime.end.p0(i64 8, ptr %6) #4
  %129 = load ptr, ptr %3, align 8
  ret ptr %129
}