; Function Attrs: nounwind uwtable
define noundef ptr @Mtr_CopyTree(ptr noundef readonly %0, i32 noundef %1) local_unnamed_addr #5 {
  %3 = icmp eq ptr %0, null
  %4 = icmp slt i32 %1, 1
  %or.cond = or i1 %3, %4
  br i1 %or.cond, label %.loopexit, label %5

5:                                                ; preds = %2
  %6 = tail call noalias noundef dereferenceable_or_null(48) ptr @malloc(i64 noundef 48) #12
  %7 = icmp eq ptr %6, null
  br i1 %7, label %.loopexit, label %8

8:                                                ; preds = %5
  %9 = getelementptr inbounds nuw i8, ptr %6, i64 40
  %10 = getelementptr inbounds nuw i8, ptr %6, i64 24
  %11 = getelementptr inbounds nuw i8, ptr %6, i64 16
  %12 = getelementptr inbounds nuw i8, ptr %0, i64 24
  tail call void @llvm.memset.p0.i64(ptr noundef nonnull align 8 dereferenceable(32) %11, i8 0, i64 32, i1 false)
  %13 = load ptr, ptr %12, align 8, !tbaa !10
  %.not = icmp eq ptr %13, null
  br i1 %.not, label %17, label %14

14:                                               ; preds = %8
  %15 = tail call ptr @Mtr_CopyTree(ptr noundef nonnull %13, i32 noundef %1)
  store ptr %15, ptr %10, align 8, !tbaa !10
  %16 = icmp eq ptr %15, null
  br i1 %16, label %Mtr_DeallocNode.exit, label %17

Mtr_DeallocNode.exit:                             ; preds = %14
  tail call void @free(ptr noundef nonnull %6) #13
  br label %.loopexit

17:                                               ; preds = %14, %8
  %18 = getelementptr inbounds nuw i8, ptr %0, i64 40
  %19 = load ptr, ptr %18, align 8, !tbaa !11
  %.not48 = icmp eq ptr %19, null
  br i1 %.not48, label %24, label %20

20:                                               ; preds = %17
  %21 = tail call ptr @Mtr_CopyTree(ptr noundef nonnull %19, i32 noundef %1)
  store ptr %21, ptr %9, align 8, !tbaa !11
  %22 = icmp eq ptr %21, null
  br i1 %22, label %23, label %24

23:                                               ; preds = %20
  tail call void @Mtr_FreeTree(ptr noundef nonnull %6)
  br label %.loopexit

24:                                               ; preds = %20, %17
  %25 = phi ptr [ %21, %20 ], [ null, %17 ]
  %26 = load i32, ptr %0, align 8, !tbaa !3
  store i32 %26, ptr %6, align 8, !tbaa !3
  %27 = getelementptr inbounds nuw i8, ptr %0, i64 4
  %28 = load i32, ptr %27, align 4, !tbaa !12
  %29 = mul i32 %28, %1
  %30 = getelementptr inbounds nuw i8, ptr %6, i64 4
  store i32 %29, ptr %30, align 4, !tbaa !12
  %31 = getelementptr inbounds nuw i8, ptr %0, i64 8
  %32 = load i32, ptr %31, align 8, !tbaa !13
  %33 = mul i32 %32, %1
  %34 = getelementptr inbounds nuw i8, ptr %6, i64 8
  store i32 %33, ptr %34, align 8, !tbaa !13
  %35 = getelementptr inbounds nuw i8, ptr %0, i64 12
  %36 = load i32, ptr %35, align 4, !tbaa !14
  %37 = mul i32 %36, %1
  %38 = getelementptr inbounds nuw i8, ptr %6, i64 12
  store i32 %37, ptr %38, align 4, !tbaa !14
  %.not49 = icmp eq ptr %25, null
  br i1 %.not49, label %41, label %39

39:                                               ; preds = %24
  %40 = getelementptr inbounds nuw i8, ptr %25, i64 32
  store ptr %6, ptr %40, align 8, !tbaa !15
  br label %41

41:                                               ; preds = %39, %24
  %42 = load ptr, ptr %10, align 8, !tbaa !10
  %.not50 = icmp eq ptr %42, null
  br i1 %.not50, label %.loopexit, label %.preheader

.preheader:                                       ; preds = %41, %.preheader
  %.052 = phi ptr [ %45, %.preheader ], [ %42, %41 ]
  %43 = getelementptr inbounds nuw i8, ptr %.052, i64 16
  store ptr %6, ptr %43, align 8, !tbaa !16
  %44 = getelementptr inbounds nuw i8, ptr %.052, i64 40
  %45 = load ptr, ptr %44, align 8, !tbaa !11
  %.not51 = icmp eq ptr %45, null
  br i1 %.not51, label %.loopexit, label %.preheader, !llvm.loop !17

.loopexit:                                        ; preds = %.preheader, %41, %5, %2, %23, %Mtr_DeallocNode.exit
  %.040 = phi ptr [ null, %Mtr_DeallocNode.exit ], [ null, %23 ], [ null, %2 ], [ null, %5 ], [ %6, %41 ], [ %6, %.preheader ]
  ret ptr %.040
}